Certificate:
    Data:
        Version: 3 (0x2)
        Serial Number:
            f9:bd:a1:51:c7:13:9c:43
        Signature Algorithm: sha256WithRSAEncryption
        Issuer: C=EU, O=Unity, CN=Unity Low Trust CA
        Validity
            Not Before: Feb 21 17:58:54 2021 GMT
            Not After : Feb 20 17:58:54 2026 GMT
        Subject: C=EU, L=Warsaw, O=Unity, CN=localhost
        Subject Public Key Info:
            Public Key Algorithm: rsaEncryption
                RSA Public-Key: (4096 bit)
                Modulus:
                    00:af:c4:d2:26:6d:17:10:5c:d6:e6:e4:2a:cd:a5:
                    62:6f:32:f1:47:fa:0a:de:fc:3d:e4:96:5f:ae:e9:
                    7f:4e:21:a2:f1:d4:f2:5f:37:17:60:a2:d9:a0:18:
                    11:61:d8:a6:89:b5:11:8c:90:d2:79:2f:1c:80:ef:
                    89:5d:cb:f0:7b:1b:a0:c1:d6:fd:c6:20:c9:dd:b1:
                    93:d5:07:c3:43:21:bb:d2:86:cf:8e:b8:d4:da:a1:
                    4e:84:19:50:bb:36:02:7e:3d:cd:0b:75:16:04:29:
                    da:a3:2b:d5:d5:ea:fe:5e:8c:07:97:5e:23:0d:e8:
                    1d:78:05:e7:a2:e0:2e:40:fc:70:81:c4:6f:9d:c4:
                    76:ea:98:c4:90:62:33:a8:69:2f:64:b5:a8:66:3f:
                    6c:a9:7f:fb:28:4e:58:bf:fe:4d:b0:58:0e:66:6b:
                    0e:11:fa:d2:46:13:67:ec:3b:5d:c2:17:b8:61:42:
                    36:03:8e:ff:82:5c:77:73:3c:9b:23:7a:b8:4c:d8:
                    09:cc:d3:1d:62:fa:39:a0:66:78:15:63:c6:b0:87:
                    46:a3:fe:aa:c6:50:3b:44:af:a8:7e:9a:97:af:02:
                    0f:04:c3:ee:1c:25:28:31:9f:0b:fa:f1:92:72:e7:
                    bd:f8:19:cb:c3:b0:4e:9b:c9:4a:0f:96:db:37:ee:
                    3f:2c:82:90:7b:d4:5e:43:cf:54:be:ec:a3:bd:9d:
                    ba:dd:83:0f:36:f3:c6:85:71:10:aa:41:16:a7:88:
                    ff:04:a2:e3:5e:ac:d5:9d:be:66:ec:6e:70:51:54:
                    59:0f:b0:c7:7a:9f:e2:81:9d:2c:91:ba:91:73:d8:
                    2a:9c:a4:0c:74:b7:34:73:f3:54:4c:ed:47:b2:1d:
                    a4:4f:6e:ff:ec:8a:7c:36:e2:45:f7:8d:5a:a4:54:
                    fc:4c:0d:73:b9:8f:a2:3d:1f:f6:81:f7:9e:2f:55:
                    8b:bb:58:6a:9d:c1:f8:13:7a:aa:93:53:84:10:d8:
                    11:15:77:3e:0b:34:a8:c9:9f:d0:da:1d:01:52:0d:
                    78:fd:57:9e:c0:59:31:24:b2:95:41:b1:d2:c2:6d:
                    86:e1:f9:54:2f:cc:18:e3:1c:cd:7d:35:79:42:49:
                    cd:92:05:fa:ca:ff:f6:c1:9c:ec:f3:b9:4d:fc:6c:
                    75:9d:9c:b8:c9:b9:0b:ff:df:0c:88:00:ba:56:50:
                    46:d9:b8:13:96:6d:14:6c:06:3b:d8:e7:3e:e0:0f:
                    bb:7a:90:c3:8f:0d:4d:b2:6b:f2:a7:d1:da:b9:71:
                    ee:d7:6c:77:2e:97:45:11:f1:62:37:8c:d7:60:ee:
                    53:b0:60:c7:4a:4a:12:26:17:a2:b6:cb:6b:1c:e8:
                    56:c2:09
                Exponent: 65537 (0x10001)
        X509v3 extensions:
            X509v3 Basic Constraints: 
                CA:FALSE
            Netscape Cert Type: 
                SSL Client, SSL Server, S/MIME, Object Signing
            X509v3 Key Usage: 
                Digital Signature, Non Repudiation, Key Encipherment, Data Encipherment
            X509v3 Subject Key Identifier: 
                E8:81:53:33:B7:DA:E6:71:EC:BD:08:BA:90:28:79:36:99:CC:DB:E2
            X509v3 Authority Key Identifier: 
                keyid:66:DE:CD:1C:D6:92:DA:A7:52:BA:46:F0:24:7B:3E:0C:72:07:C0:16

    Signature Algorithm: sha256WithRSAEncryption
         73:b9:54:87:53:b2:55:15:08:c0:35:0a:44:37:63:5e:ac:7d:
         ae:d4:e1:56:2d:bc:4a:c1:bb:f5:f8:ab:41:4d:9b:ec:6d:45:
         76:59:c3:e2:84:fd:e1:03:ef:20:c7:cd:26:ea:d6:15:e4:d0:
         b7:0c:ac:d6:b9:d6:1d:56:3d:da:0f:9e:27:3b:6c:26:40:69:
         90:28:f4:c7:2f:33:7a:e8:93:46:c5:6b:ec:e4:41:0c:c5:8e:
         ad:13:7b:3a:ce:65:05:25:13:de:f5:b4:ef:96:37:f3:75:3b:
         42:12:a1:e6:dc:1c:c1:b5:6d:cf:60:62:fa:eb:ea:ad:63:7b:
         51:01:58:da:a7:22:2b:51:3f:49:b0:a0:2f:eb:b5:48:cb:8a:
         15:e2:82:0e:09:c6:2b:25:40:cd:9f:64:b1:6c:17:e2:91:72:
         db:e3:e1:65:13:7c:c3:38:de:9d:5c:f5:44:26:57:9b:82:cf:
         60:e4:2b:13:52:12:d5:b3:4c:dd:0e:fa:8b:8b:26:95:33:41:
         4b:93:38:57:69:04:47:60:d9:6e:80:0d:8a:17:55:f7:d2:2a:
         d5:23:08:20:59:e1:77:e9:b3:b2:56:ff:2b:91:6b:5d:15:7f:
         dd:ea:06:1c:da:a2:25:96:8d:d0:f4:99:49:ca:05:ed:6d:f6:
         7d:03:f8:04
-----BEGIN CERTIFICATE-----
MIIEbDCCA1SgAwIBAgIJAPm9oVHHE5xDMA0GCSqGSIb3DQEBCwUAMDoxCzAJBgNV
BAYTAkVVMQ4wDAYDVQQKDAVVbml0eTEbMBkGA1UEAwwSVW5pdHkgTG93IFRydXN0
IENBMB4XDTIxMDIyMTE3NTg1NFoXDTI2MDIyMDE3NTg1NFowQjELMAkGA1UEBhMC
RVUxDzANBgNVBAcMBldhcnNhdzEOMAwGA1UECgwFVW5pdHkxEjAQBgNVBAMMCWxv
Y2FsaG9zdDCCAiIwDQYJKoZIhvcNAQEBBQADggIPADCCAgoCggIBAK/E0iZtFxBc
1ubkKs2lYm8y8Uf6Ct78PeSWX67pf04hovHU8l83F2Ci2aAYEWHYpom1EYyQ0nkv
HIDviV3L8HsboMHW/cYgyd2xk9UHw0Mhu9KGz4641NqhToQZULs2An49zQt1FgQp
2qMr1dXq/l6MB5deIw3oHXgF56LgLkD8cIHEb53EduqYxJBiM6hpL2S1qGY/bKl/
+yhOWL/+TbBYDmZrDhH60kYTZ+w7XcIXuGFCNgOO/4Jcd3M8myN6uEzYCczTHWL6
OaBmeBVjxrCHRqP+qsZQO0SvqH6al68CDwTD7hwlKDGfC/rxknLnvfgZy8OwTpvJ
Sg+W2zfuPyyCkHvUXkPPVL7so72dut2DDzbzxoVxEKpBFqeI/wSi416s1Z2+Zuxu
cFFUWQ+wx3qf4oGdLJG6kXPYKpykDHS3NHPzVEztR7IdpE9u/+yKfDbiRfeNWqRU
/EwNc7mPoj0f9oH3ni9Vi7tYap3B+BN6qpNThBDYERV3Pgs0qMmf0NodAVINeP1X
nsBZMSSylUGx0sJthuH5VC/MGOMczX01eUJJzZIF+sr/9sGc7PO5TfxsdZ2cuMm5
C//fDIgAulZQRtm4E5ZtFGwGO9jnPuAPu3qQw48NTbJr8qfR2rlx7tdsdy6XRRHx
YjeM12DuU7Bgx0pKEiYXorbLaxzoVsIJAgMBAAGjbTBrMAkGA1UdEwQCMAAwEQYJ
YIZIAYb4QgEBBAQDAgTwMAsGA1UdDwQEAwIE8DAdBgNVHQ4EFgQU6IFTM7fa5nHs
vQi6kCh5NpnM2+IwHwYDVR0jBBgwFoAUZt7NHNaS2qdSukbwJHs+DHIHwBYwDQYJ
KoZIhvcNAQELBQADggEBAHO5VIdTslUVCMA1CkQ3Y16sfa7U4VYtvErBu/X4q0FN
m+xtRXZZw+KE/eED7yDHzSbq1hXk0LcMrNa51h1WPdoPnic7bCZAaZAo9McvM3ro
k0bFa+zkQQzFjq0TezrOZQUlE971tO+WN/N1O0ISoebcHMG1bc9gYvrr6q1je1EB
WNqnIitRP0mwoC/rtUjLihXigg4JxislQM2fZLFsF+KRctvj4WUTfMM43p1c9UQm
V5uCz2DkKxNSEtWzTN0O+ouLJpUzQUuTOFdpBEdg2W6ADYoXVffSKtUjCCBZ4Xfp
s7JW/yuRa10Vf93qBhzaoiWWjdD0mUnKBe1t9n0D+AQ=
-----END CERTIFICATE-----
