Certificate:
    Data:
        Version: 3 (0x2)
        Serial Number:
            f9:bd:a1:51:c7:13:9c:40
    Signature Algorithm: sha256WithRSAEncryption
        Issuer: C=EU, O=Unity, CN=Unity Low Trust CA
        Validity
            Not Before: Apr 25 17:42:32 2017 GMT
            Not After : Apr 24 17:42:32 2022 GMT
        Subject: C=EU, L=Warsaw, O=Unity, CN=idp-test
        Subject Public Key Info:
            Public Key Algorithm: rsaEncryption
                Public-Key: (2048 bit)
                Modulus:
                    00:e8:d9:2b:f1:a8:17:92:8a:f3:e4:5d:8b:78:8f:
                    2f:c1:0e:3c:9f:16:27:92:03:fc:2c:7f:90:b4:76:
                    5d:e2:3c:ce:da:cd:33:ba:87:bf:15:05:3d:f6:95:
                    b0:6d:37:dc:08:de:db:18:02:cb:28:e5:37:cd:51:
                    27:46:d3:31:79:bc:ea:97:27:57:cc:22:b3:8a:4f:
                    c0:67:d8:68:35:d5:88:e9:e5:35:97:c9:8a:38:28:
                    18:4b:89:44:5b:8c:c0:20:11:b5:df:f4:b0:03:b3:
                    06:83:1f:84:93:07:20:04:a8:a5:6f:28:16:32:51:
                    ee:a5:d1:5f:79:51:c0:37:c2:49:92:40:b0:60:a1:
                    dc:43:55:07:41:80:7c:cc:e3:d1:a5:0d:2e:44:1b:
                    73:78:e2:72:60:9f:52:97:b1:82:88:8b:ab:1c:c5:
                    32:d4:4f:e7:bd:45:dc:09:f2:d0:b4:b6:9b:62:b1:
                    23:4b:94:cd:59:2b:43:22:a9:53:75:b8:73:47:c7:
                    a9:f6:56:f8:00:21:0c:b0:a5:ce:b5:41:84:55:26:
                    46:08:dd:35:5f:d1:b6:20:fb:b7:a9:ff:9c:85:30:
                    36:d1:0e:3d:95:97:b7:e1:e9:65:6f:3d:01:52:7e:
                    dd:0e:9d:8c:37:62:c0:e1:e4:57:40:ed:f6:bc:9b:
                    b2:f3
                Exponent: 65537 (0x10001)
        X509v3 extensions:
            X509v3 Basic Constraints: 
                CA:FALSE
            Netscape Cert Type: 
                SSL Client, SSL Server, S/MIME, Object Signing
            X509v3 Key Usage: 
                Digital Signature, Non Repudiation, Key Encipherment, Data Encipherment
            X509v3 Subject Key Identifier: 
                BD:83:A2:EF:D2:1C:F6:A8:DA:B3:56:DC:68:B2:67:B8:AD:AA:FE:59
            X509v3 Authority Key Identifier: 
                keyid:66:DE:CD:1C:D6:92:DA:A7:52:BA:46:F0:24:7B:3E:0C:72:07:C0:16

    Signature Algorithm: sha256WithRSAEncryption
         2b:ea:85:13:6a:0a:1a:e2:1c:3c:0e:15:ec:96:02:4e:7d:aa:
         5c:cb:0f:31:9e:41:e7:f8:a3:39:f9:b1:f6:30:17:7d:60:52:
         73:d0:93:17:d8:e0:11:0a:70:90:51:96:41:cf:af:14:5d:10:
         58:27:b1:43:2f:03:92:c9:e5:e1:33:dd:21:1d:a2:9d:c0:96:
         56:72:f3:eb:77:3c:71:45:4e:2e:ff:03:1a:30:d9:1e:a4:01:
         aa:02:22:3b:ee:a1:8f:73:78:cc:be:ff:f3:a6:bf:ba:cd:a0:
         d5:4a:a2:2b:15:9c:96:a9:60:6c:4d:21:e9:c1:a1:3e:ee:9b:
         4b:03:b0:45:07:a3:57:a0:5d:b3:20:f4:66:b5:01:e7:2c:49:
         ef:c4:84:0e:a3:f8:de:8d:83:ba:80:44:cc:aa:53:c5:9e:66:
         69:62:31:84:32:18:e4:54:7a:19:d2:3f:73:4e:03:45:40:60:
         e7:e2:d7:4e:a0:9f:a5:01:0d:0c:70:5f:b0:d8:25:37:89:70:
         d3:cd:59:eb:7d:42:ac:57:fb:4c:23:cc:cf:cd:ef:1e:55:c2:
         0f:57:67:78:01:44:48:e7:eb:65:e7:81:7f:31:ba:c9:3b:4c:
         aa:35:69:2a:7c:66:52:20:37:4d:52:a0:a2:0f:e0:f8:ad:3b:
         c5:e2:e3:f9
-----BEGIN CERTIFICATE-----
MIIDazCCAlOgAwIBAgIJAPm9oVHHE5xAMA0GCSqGSIb3DQEBCwUAMDoxCzAJBgNV
BAYTAkVVMQ4wDAYDVQQKDAVVbml0eTEbMBkGA1UEAwwSVW5pdHkgTG93IFRydXN0
IENBMB4XDTE3MDQyNTE3NDIzMloXDTIyMDQyNDE3NDIzMlowQTELMAkGA1UEBhMC
RVUxDzANBgNVBAcMBldhcnNhdzEOMAwGA1UECgwFVW5pdHkxETAPBgNVBAMMCGlk
cC10ZXN0MIIBIjANBgkqhkiG9w0BAQEFAAOCAQ8AMIIBCgKCAQEA6Nkr8agXkorz
5F2LeI8vwQ48nxYnkgP8LH+QtHZd4jzO2s0zuoe/FQU99pWwbTfcCN7bGALLKOU3
zVEnRtMxebzqlydXzCKzik/AZ9hoNdWI6eU1l8mKOCgYS4lEW4zAIBG13/SwA7MG
gx+EkwcgBKilbygWMlHupdFfeVHAN8JJkkCwYKHcQ1UHQYB8zOPRpQ0uRBtzeOJy
YJ9Sl7GCiIurHMUy1E/nvUXcCfLQtLabYrEjS5TNWStDIqlTdbhzR8ep9lb4ACEM
sKXOtUGEVSZGCN01X9G2IPu3qf+chTA20Q49lZe34ellbz0BUn7dDp2MN2LA4eRX
QO32vJuy8wIDAQABo20wazAJBgNVHRMEAjAAMBEGCWCGSAGG+EIBAQQEAwIE8DAL
BgNVHQ8EBAMCBPAwHQYDVR0OBBYEFL2Dou/SHPao2rNW3GiyZ7itqv5ZMB8GA1Ud
IwQYMBaAFGbezRzWktqnUrpG8CR7PgxyB8AWMA0GCSqGSIb3DQEBCwUAA4IBAQAr
6oUTagoa4hw8DhXslgJOfapcyw8xnkHn+KM5+bH2MBd9YFJz0JMX2OARCnCQUZZB
z68UXRBYJ7FDLwOSyeXhM90hHaKdwJZWcvPrdzxxRU4u/wMaMNkepAGqAiI77qGP
c3jMvv/zpr+6zaDVSqIrFZyWqWBsTSHpwaE+7ptLA7BFB6NXoF2zIPRmtQHnLEnv
xIQOo/jejYO6gETMqlPFnmZpYjGEMhjkVHoZ0j9zTgNFQGDn4tdOoJ+lAQ0McF+w
2CU3iXDTzVnrfUKsV/tMI8zPze8eVcIPV2d4AURI5+tl54F/MbrJO0yqNWkqfGZS
IDdNUqCiD+D4rTvF4uP5
-----END CERTIFICATE-----
