Certificate:
    Data:
        Version: 3 (0x2)
        Serial Number:
            f9:bd:a1:51:c7:13:9c:3f
    Signature Algorithm: sha256WithRSAEncryption
        Issuer: C=EU, O=Unity, CN=Unity Low Trust CA
        Validity
            Not Before: Apr 25 17:34:18 2017 GMT
            Not After : Apr 24 17:34:18 2022 GMT
        Subject: C=EU, L=Warsaw, O=Unity, CN=idp-test
        Subject Public Key Info:
            Public Key Algorithm: rsaEncryption
                Public-Key: (2048 bit)
                Modulus:
                    00:94:d5:c2:d3:d3:dc:03:66:f5:5e:01:0c:dd:09:
                    f4:ef:b9:76:df:dd:6d:bc:03:ba:71:cb:6a:11:a1:
                    49:16:b5:23:d9:60:5a:76:d8:52:b6:54:a9:4b:73:
                    12:a0:51:bb:ee:b4:bd:43:98:36:d0:63:58:50:b3:
                    56:b2:9b:f4:fc:ba:9e:2f:90:de:6a:6e:aa:1c:20:
                    b7:83:30:f5:79:d5:bf:39:cb:fa:4c:ed:d2:2e:d2:
                    23:a4:70:ee:93:90:8a:97:f5:b8:54:5b:2d:d1:cd:
                    ba:9a:68:47:05:2a:e5:be:e7:7a:18:05:3e:1c:62:
                    f8:38:8a:98:e8:db:86:65:3a:fd:17:bd:7d:f4:97:
                    eb:95:a4:f3:05:13:9e:39:3d:64:cd:db:2b:e1:e3:
                    6d:e1:1c:3c:57:76:09:36:a4:12:0f:4b:79:f7:38:
                    93:ff:7f:80:b8:34:7e:db:28:56:c4:3b:76:41:e5:
                    cd:39:6e:63:89:70:70:36:c1:03:5a:a3:90:79:61:
                    ee:db:2b:c2:a7:1b:3d:26:d0:ec:39:ad:f8:4b:de:
                    7e:c0:29:6d:59:2b:74:ed:4e:02:51:8d:67:95:3c:
                    fc:69:77:59:fc:c0:7d:c6:c0:c4:60:05:f2:e8:b8:
                    d2:53:fa:b6:a6:12:1e:f0:cb:e2:9d:a9:aa:a2:28:
                    3d:79
                Exponent: 65537 (0x10001)
        X509v3 extensions:
            X509v3 Basic Constraints: 
                CA:FALSE
            Netscape Cert Type: 
                SSL Client, SSL Server, S/MIME, Object Signing
            X509v3 Key Usage: 
                Digital Signature, Non Repudiation, Key Encipherment, Data Encipherment
            X509v3 Subject Key Identifier: 
                64:1F:65:C6:06:38:69:3D:65:F9:9B:5A:AE:75:42:D1:5C:C5:F6:A9
            X509v3 Authority Key Identifier: 
                keyid:66:DE:CD:1C:D6:92:DA:A7:52:BA:46:F0:24:7B:3E:0C:72:07:C0:16

    Signature Algorithm: sha256WithRSAEncryption
         5c:74:be:d9:92:d4:de:0f:47:aa:d6:11:24:27:82:a8:bd:2c:
         d3:e2:83:91:5f:be:f4:d8:5c:16:de:45:fe:8c:9e:f8:7e:b6:
         cf:93:5a:f9:4f:bb:a4:19:2e:97:f2:54:79:43:e7:88:6a:c5:
         ff:0b:b1:c0:31:91:1e:a8:74:b7:37:17:62:cd:c6:69:85:8b:
         4f:3a:a0:ab:d8:fa:b0:03:e9:75:bf:2e:ac:da:a0:d1:6b:82:
         a7:eb:cf:c2:14:b1:72:46:e0:95:e3:99:69:eb:1d:81:87:19:
         9d:51:b3:e2:cd:7a:a4:c0:ff:58:a7:80:59:c8:ee:5e:20:25:
         0f:26:e1:33:75:19:88:95:e1:25:5f:f0:c4:08:34:bf:5f:a1:
         35:05:c9:01:d1:e0:48:6e:08:55:b0:bc:86:56:99:92:28:42:
         7e:39:37:70:63:22:e6:3f:23:31:a3:4c:64:aa:73:f8:b7:33:
         82:90:9d:be:b0:a8:e0:cc:a5:c8:af:90:86:9d:57:a2:86:ae:
         57:e5:ce:37:cd:f8:b0:93:12:de:13:0c:24:ef:d9:b4:a8:7e:
         db:db:46:ba:b9:37:80:00:9d:8d:ce:dd:82:45:14:d1:b1:04:
         ec:0c:8e:20:15:45:b7:d6:38:99:01:24:d4:1c:39:a6:6e:8f:
         f7:e4:9a:1e
-----BEGIN CERTIFICATE-----
MIIDazCCAlOgAwIBAgIJAPm9oVHHE5w/MA0GCSqGSIb3DQEBCwUAMDoxCzAJBgNV
BAYTAkVVMQ4wDAYDVQQKDAVVbml0eTEbMBkGA1UEAwwSVW5pdHkgTG93IFRydXN0
IENBMB4XDTE3MDQyNTE3MzQxOFoXDTIyMDQyNDE3MzQxOFowQTELMAkGA1UEBhMC
RVUxDzANBgNVBAcMBldhcnNhdzEOMAwGA1UECgwFVW5pdHkxETAPBgNVBAMMCGlk
cC10ZXN0MIIBIjANBgkqhkiG9w0BAQEFAAOCAQ8AMIIBCgKCAQEAlNXC09PcA2b1
XgEM3Qn077l2391tvAO6cctqEaFJFrUj2WBadthStlSpS3MSoFG77rS9Q5g20GNY
ULNWspv0/LqeL5Deam6qHCC3gzD1edW/Ocv6TO3SLtIjpHDuk5CKl/W4VFst0c26
mmhHBSrlvud6GAU+HGL4OIqY6NuGZTr9F7199JfrlaTzBROeOT1kzdsr4eNt4Rw8
V3YJNqQSD0t59ziT/3+AuDR+2yhWxDt2QeXNOW5jiXBwNsEDWqOQeWHu2yvCpxs9
JtDsOa34S95+wCltWSt07U4CUY1nlTz8aXdZ/MB9xsDEYAXy6LjSU/q2phIe8Mvi
namqoig9eQIDAQABo20wazAJBgNVHRMEAjAAMBEGCWCGSAGG+EIBAQQEAwIE8DAL
BgNVHQ8EBAMCBPAwHQYDVR0OBBYEFGQfZcYGOGk9ZfmbWq51QtFcxfapMB8GA1Ud
IwQYMBaAFGbezRzWktqnUrpG8CR7PgxyB8AWMA0GCSqGSIb3DQEBCwUAA4IBAQBc
dL7ZktTeD0eq1hEkJ4KovSzT4oORX7702FwW3kX+jJ74frbPk1r5T7ukGS6X8lR5
Q+eIasX/C7HAMZEeqHS3NxdizcZphYtPOqCr2PqwA+l1vy6s2qDRa4Kn68/CFLFy
RuCV45lp6x2BhxmdUbPizXqkwP9Yp4BZyO5eICUPJuEzdRmIleElX/DECDS/X6E1
BckB0eBIbghVsLyGVpmSKEJ+OTdwYyLmPyMxo0xkqnP4tzOCkJ2+sKjgzKXIr5CG
nVeihq5X5c43zfiwkxLeEwwk79m0qH7b20a6uTeAAJ2Nzt2CRRTRsQTsDI4gFUW3
1jiZASTUHDmmbo/35Joe
-----END CERTIFICATE-----
