Certificate:
    Data:
        Version: 3 (0x2)
        Serial Number:
            24:9e:4c:33:ce:f7:1b:d5:de:96:3a:6c:e8:51:2e:49:dc:5c:72:40
        Signature Algorithm: sha256WithRSAEncryption
        Issuer: C=PL, O=Unity-IdM, CN=Unity Low Trust Internal CA
        Validity
            Not Before: Jul 17 20:00:00 2024 GMT
            Not After : Jul 10 20:00:00 2054 GMT
        Subject: C=PL, O=Unity-IdM, CN=Unity Low Trust Internal CA
        Subject Public Key Info:
            Public Key Algorithm: rsaEncryption
                Public-Key: (4096 bit)
                Modulus:
                    00:9a:ca:98:e7:1f:34:15:0e:a6:a6:03:be:fb:38:
                    cf:a1:d5:87:a3:b2:b5:8b:45:8e:80:d1:2f:aa:6a:
                    ce:ba:d4:a0:41:9b:4d:ae:64:20:71:8a:2b:af:99:
                    d4:25:63:52:21:1c:69:d6:0d:97:48:52:4b:ec:84:
                    5f:9b:ff:c8:56:71:c4:2b:4c:5c:69:23:3b:78:69:
                    13:43:9d:42:40:24:1a:33:47:e9:1b:77:a3:40:97:
                    d1:4f:7d:06:d7:1a:4c:aa:76:66:32:ca:fb:8e:57:
                    f1:00:27:ee:8c:f7:c1:61:57:df:fb:da:d8:53:55:
                    5c:11:e6:f8:fc:4d:25:fd:5e:f9:00:5d:f6:df:f6:
                    7d:5a:af:cd:16:61:e5:3b:6b:a2:40:19:ff:93:13:
                    c7:61:cd:01:7d:24:6e:9c:a7:08:e4:8d:3b:92:0a:
                    5f:09:bb:be:8a:1e:07:ef:af:ef:8e:2e:64:13:85:
                    c4:70:91:53:2e:c9:76:bb:2c:de:ae:45:b5:76:56:
                    b9:1e:e5:8d:fe:eb:34:a5:bc:07:a1:f4:b7:bf:88:
                    e0:de:40:87:79:5b:d6:14:5d:47:f2:00:98:9e:96:
                    b4:53:85:cb:ae:5b:12:d4:d4:c6:0f:eb:22:9d:e9:
                    8e:18:12:74:73:9b:60:98:9f:fd:c6:3b:85:c3:06:
                    5d:60:13:bf:68:cf:a2:f5:bf:13:d2:30:bc:24:0e:
                    23:5c:6b:45:db:e9:09:2e:b1:bc:83:91:d5:c0:42:
                    4c:0f:3c:56:90:52:e1:64:90:eb:5d:00:28:92:e4:
                    85:67:3f:ec:6c:bb:48:f1:0d:cc:5e:4b:52:e0:aa:
                    e6:e7:f6:05:b9:ed:0b:c0:51:76:c0:77:0a:7b:eb:
                    50:26:0c:0a:0f:b2:40:b0:83:24:d2:35:22:a3:72:
                    7f:56:26:c8:ce:d0:dd:fd:54:8c:6d:d1:ff:55:fe:
                    83:4d:b2:ac:37:fb:c3:f5:c5:25:f9:c0:8e:de:7c:
                    aa:1f:a3:33:c6:12:9d:92:1d:ac:b4:c3:86:66:d7:
                    eb:ff:41:9e:8a:1d:f6:e4:f0:f3:8b:98:7a:ef:11:
                    8b:01:48:cb:48:eb:90:95:3c:4d:47:b2:82:74:3d:
                    b8:99:c4:1f:39:de:77:90:34:ce:5f:a6:49:49:16:
                    a9:fa:4d:c2:23:d0:55:8b:98:c2:2a:bf:e8:0a:ae:
                    ae:ae:34:b1:b8:85:3c:fb:88:8e:18:5c:48:61:ea:
                    fa:01:81:a2:1e:a1:b3:c8:21:6e:2d:b5:37:86:f8:
                    65:d9:86:11:c8:74:32:a3:24:d6:18:6b:59:9b:ff:
                    5c:38:5b:33:d5:5e:48:37:dc:68:a9:b0:8c:b0:c6:
                    0e:63:99
                Exponent: 65537 (0x10001)
        X509v3 extensions:
            X509v3 Subject Key Identifier: 
                4B:B5:B8:EB:CA:A4:E6:50:E9:0E:C4:48:2E:66:5E:3D:9D:B9:12:07
            X509v3 Authority Key Identifier: 
                4B:B5:B8:EB:CA:A4:E6:50:E9:0E:C4:48:2E:66:5E:3D:9D:B9:12:07
            X509v3 Basic Constraints: critical
                CA:TRUE
    Signature Algorithm: sha256WithRSAEncryption
    Signature Value:
        2c:7e:e9:15:3b:f3:3a:b4:eb:f8:02:4c:3f:ff:6a:f6:0f:04:
        47:74:7f:c0:30:98:fe:bd:41:72:07:44:16:d7:ee:21:fd:d8:
        27:60:9f:d4:65:14:d2:a3:d0:ec:57:b0:95:ae:8c:0b:a8:35:
        91:da:e0:dc:5e:b7:37:ef:cf:72:0c:11:cf:3d:df:2d:f2:0f:
        35:a2:0b:01:56:94:65:cd:56:d7:54:18:77:47:5d:4f:92:42:
        38:93:88:15:f7:f6:a2:e5:7c:56:55:6b:9f:ff:9e:6b:bd:24:
        ed:44:63:44:9a:a4:1f:6a:d3:27:4c:ab:18:cf:96:f6:ae:6e:
        40:cb:72:e3:cf:de:55:00:fb:f4:d3:2f:77:48:5f:b6:ea:76:
        15:7e:d7:1e:ac:e8:fe:39:09:88:fb:b2:a9:04:32:fb:2d:ff:
        b1:5b:21:9f:2c:da:21:59:c4:78:aa:fb:5c:f6:25:e1:c1:84:
        f2:e2:ce:b5:ff:1b:c5:78:cd:8f:1f:65:e6:de:a5:00:0a:8e:
        cb:20:e0:4b:bd:a9:27:54:8c:a1:e0:95:74:4d:3f:95:09:33:
        5a:2d:d6:01:62:8e:e4:33:d1:1d:a5:b0:ce:46:ae:0e:57:31:
        94:44:67:ff:f0:16:00:c7:a5:ab:c7:b7:7a:77:17:25:66:95:
        5e:95:48:ff:12:98:5f:e9:c1:56:e9:97:e7:5b:0d:5a:f2:a4:
        b7:5e:45:4d:cc:c6:aa:ba:c9:0d:d4:df:64:82:fe:b6:9b:db:
        2f:14:a5:53:15:b5:ed:01:6b:fd:c9:f5:51:c4:3b:b7:7c:09:
        0e:49:02:1a:5b:58:09:dc:af:ac:1e:d1:e3:bb:a6:e8:c0:7f:
        68:db:61:f7:a9:33:3d:06:3e:50:13:db:ce:59:2a:22:5d:ca:
        b2:ff:5d:97:b9:17:dd:25:c6:90:46:de:83:54:17:79:e6:65:
        d8:53:3a:5c:f8:e6:57:9d:f0:f0:c4:fb:12:2a:d3:f2:f1:8c:
        d8:92:a3:73:3e:82:fe:92:86:3f:1c:81:c3:75:46:1e:04:c4:
        41:fd:7d:d3:15:8a:1b:73:50:52:07:63:50:a1:e4:0d:fd:20:
        68:0e:76:b7:96:2b:ac:d2:4c:9d:bd:cb:5c:05:4e:4f:c0:e4:
        7e:a8:85:40:66:15:bb:d7:5d:fa:aa:a6:31:be:25:b9:64:0e:
        54:54:41:02:ad:45:a1:e7:0f:8e:bc:9a:95:61:f6:45:b6:2a:
        75:27:f2:37:a9:2a:86:7c:08:52:e1:fb:74:6b:35:7f:9e:a8:
        2a:88:86:c3:55:f5:4d:78:9f:e0:f5:29:6f:0c:1a:48:c4:75:
        9c:15:35:38:32:b1:6c:9d
-----BEGIN CERTIFICATE-----
MIIFcTCCA1mgAwIBAgIUJJ5MM873G9Xeljps6FEuSdxcckAwDQYJKoZIhvcNAQEL
BQAwRzELMAkGA1UEBhMCUEwxEjAQBgNVBAoMCVVuaXR5LUlkTTEkMCIGA1UEAwwb
VW5pdHkgTG93IFRydXN0IEludGVybmFsIENBMCAXDTI0MDcxNzIwMDAwMFoYDzIw
NTQwNzEwMjAwMDAwWjBHMQswCQYDVQQGEwJQTDESMBAGA1UECgwJVW5pdHktSWRN
MSQwIgYDVQQDDBtVbml0eSBMb3cgVHJ1c3QgSW50ZXJuYWwgQ0EwggIiMA0GCSqG
SIb3DQEBAQUAA4ICDwAwggIKAoICAQCaypjnHzQVDqamA777OM+h1YejsrWLRY6A
0S+qas661KBBm02uZCBxiiuvmdQlY1IhHGnWDZdIUkvshF+b/8hWccQrTFxpIzt4
aRNDnUJAJBozR+kbd6NAl9FPfQbXGkyqdmYyyvuOV/EAJ+6M98FhV9/72thTVVwR
5vj8TSX9XvkAXfbf9n1ar80WYeU7a6JAGf+TE8dhzQF9JG6cpwjkjTuSCl8Ju76K
Hgfvr++OLmQThcRwkVMuyXa7LN6uRbV2Vrke5Y3+6zSlvAeh9Le/iODeQId5W9YU
XUfyAJielrRThcuuWxLU1MYP6yKd6Y4YEnRzm2CYn/3GO4XDBl1gE79oz6L1vxPS
MLwkDiNca0Xb6QkusbyDkdXAQkwPPFaQUuFkkOtdACiS5IVnP+xsu0jxDcxeS1Lg
qubn9gW57QvAUXbAdwp761AmDAoPskCwgyTSNSKjcn9WJsjO0N39VIxt0f9V/oNN
sqw3+8P1xSX5wI7efKofozPGEp2SHay0w4Zm1+v/QZ6KHfbk8POLmHrvEYsBSMtI
65CVPE1HsoJ0PbiZxB853neQNM5fpklJFqn6TcIj0FWLmMIqv+gKrq6uNLG4hTz7
iI4YXEhh6voBgaIeobPIIW4ttTeG+GXZhhHIdDKjJNYYa1mb/1w4WzPVXkg33Gip
sIywxg5jmQIDAQABo1MwUTAdBgNVHQ4EFgQUS7W468qk5lDpDsRILmZePZ25Egcw
HwYDVR0jBBgwFoAUS7W468qk5lDpDsRILmZePZ25EgcwDwYDVR0TAQH/BAUwAwEB
/zANBgkqhkiG9w0BAQsFAAOCAgEALH7pFTvzOrTr+AJMP/9q9g8ER3R/wDCY/r1B
cgdEFtfuIf3YJ2Cf1GUU0qPQ7Fewla6MC6g1kdrg3F63N+/PcgwRzz3fLfIPNaIL
AVaUZc1W11QYd0ddT5JCOJOIFff2ouV8VlVrn/+ea70k7URjRJqkH2rTJ0yrGM+W
9q5uQMty48/eVQD79NMvd0hftup2FX7XHqzo/jkJiPuyqQQy+y3/sVshnyzaIVnE
eKr7XPYl4cGE8uLOtf8bxXjNjx9l5t6lAAqOyyDgS72pJ1SMoeCVdE0/lQkzWi3W
AWKO5DPRHaWwzkauDlcxlERn//AWAMelq8e3encXJWaVXpVI/xKYX+nBVumX51sN
WvKkt15FTczGqrrJDdTfZIL+tpvbLxSlUxW17QFr/cn1UcQ7t3wJDkkCGltYCdyv
rB7R47um6MB/aNth96kzPQY+UBPbzlkqIl3Ksv9dl7kX3SXGkEbeg1QXeeZl2FM6
XPjmV53w8MT7EirT8vGM2JKjcz6C/pKGPxyBw3VGHgTEQf190xWKG3NQUgdjUKHk
Df0gaA52t5YrrNJMnb3LXAVOT8DkfqiFQGYVu9dd+qqmMb4luWQOVFRBAq1FoecP
jryalWH2RbYqdSfyN6kqhnwIUuH7dGs1f56oKoiGw1X1TXif4PUpbwwaSMR1nBU1
ODKxbJ0=
-----END CERTIFICATE-----
