Certificate:
    Data:
        Version: 3 (0x2)
        Serial Number:
            24:9e:4c:33:ce:f7:1b:d5:de:96:3a:6c:e8:51:2e:49:dc:5c:72:41
        Signature Algorithm: sha256WithRSAEncryption
        Issuer: C=PL, O=Unity-IdM, CN=Unity Low Trust Internal CA
        Validity
            Not Before: Jul 17 20:05:21 2024 GMT
            Not After : Jul 15 20:05:21 2034 GMT
        Subject: C=PL, O=Unity-IdM, CN=localhost
        Subject Public Key Info:
            Public Key Algorithm: rsaEncryption
                Public-Key: (4096 bit)
                Modulus:
                    00:af:5e:30:74:88:72:c1:89:cb:ee:6a:bd:b7:6f:
                    e6:d7:00:96:e7:06:54:be:62:f0:dc:3a:ab:64:a3:
                    a7:5e:ac:7d:7a:91:95:60:b2:0d:14:7f:58:05:82:
                    7a:7a:62:4b:ea:47:9c:87:a3:20:0b:3d:20:27:8f:
                    74:77:af:1b:a7:2f:23:86:b1:53:61:f6:c5:05:7f:
                    5e:34:71:04:7d:9c:81:c0:e2:cb:7c:97:fa:0e:c9:
                    8b:6b:a1:ad:b9:da:dc:32:c0:5f:b9:ab:11:d9:23:
                    25:d0:49:71:48:cc:16:3e:5d:63:59:2f:dd:69:6c:
                    89:cc:bf:35:b4:10:e3:fc:0e:64:aa:e2:6b:c4:d7:
                    5b:52:84:b1:fa:07:c2:ab:08:53:48:43:c3:c2:12:
                    e9:53:b5:e9:af:40:8f:f2:79:7b:59:ad:a1:af:10:
                    5c:01:b3:a9:d2:df:b1:b6:b3:88:c5:f9:91:04:82:
                    3a:8d:4a:0c:ba:18:51:e9:45:cf:a9:b2:c1:0f:c7:
                    50:bc:59:64:bd:fd:cd:d3:37:d2:da:07:fe:23:31:
                    51:d3:af:c0:c6:cc:62:d4:d1:e7:bf:ea:7c:2a:36:
                    91:51:cc:54:03:6e:e1:f5:0a:e0:6c:d6:c4:8f:a7:
                    e4:de:0c:10:04:a6:d0:97:61:a7:6a:fe:18:53:f3:
                    89:14:00:7f:cf:40:16:20:05:24:b8:55:e6:3c:34:
                    5b:ba:b7:3a:ec:82:b0:d9:26:72:fd:4c:90:88:74:
                    bf:fa:40:da:bf:ef:6c:65:91:4c:d7:da:67:cf:2d:
                    ab:f3:97:53:cf:df:9e:66:48:2d:cf:36:6a:cc:60:
                    46:16:2d:c6:84:16:52:c8:ae:45:1e:c7:d4:60:f2:
                    91:13:64:b1:ee:8c:1d:82:da:b0:e9:2a:7e:de:8e:
                    45:72:4b:45:4c:3d:cc:b7:ef:e1:50:15:ca:11:22:
                    dd:61:cc:87:ca:b5:1c:72:7f:1b:a2:59:24:97:60:
                    52:9f:18:c6:92:21:83:55:81:ba:c8:ac:6c:dd:7e:
                    b9:99:96:92:d4:88:4d:67:99:86:64:c1:e4:a9:11:
                    ec:56:91:7a:50:a2:9f:52:72:2f:fc:0b:99:f8:1d:
                    52:cd:92:d6:1d:0a:1a:ab:09:de:99:23:9e:47:90:
                    5d:45:db:65:04:34:3a:9a:16:e4:21:e5:4f:3d:8b:
                    88:c1:c5:52:19:85:73:8d:9e:92:49:2c:b8:61:1f:
                    c3:a0:8e:bc:68:19:45:a1:7a:76:9d:ec:bd:e1:75:
                    cd:2d:61:fb:19:98:a4:8d:c1:cf:bd:10:4f:2d:a6:
                    bd:19:a3:c7:6c:1e:fd:a5:e3:5e:15:5d:42:8a:3f:
                    34:b9:19
                Exponent: 65537 (0x10001)
        X509v3 extensions:
            X509v3 Basic Constraints: 
                CA:FALSE
            X509v3 Key Usage: 
                Digital Signature, Non Repudiation, Key Encipherment, Data Encipherment
            X509v3 Subject Key Identifier: 
                8F:CD:A4:8B:1C:71:71:F3:F6:D3:50:C4:DC:EB:A1:2E:30:91:22:52
            X509v3 Authority Key Identifier: 
                4B:B5:B8:EB:CA:A4:E6:50:E9:0E:C4:48:2E:66:5E:3D:9D:B9:12:07
    Signature Algorithm: sha256WithRSAEncryption
    Signature Value:
        22:86:e8:d1:5b:a6:1c:5a:a2:49:63:6a:24:63:ec:de:32:a2:
        eb:45:17:a6:70:d5:50:22:68:ab:a6:75:38:d2:dd:bb:12:fa:
        56:7b:80:a8:89:50:0b:ed:18:34:64:27:fd:4f:b9:9a:83:33:
        76:a3:9b:67:aa:73:a1:e3:5e:91:45:50:7d:04:47:12:37:b8:
        16:fb:85:26:01:9b:de:25:88:b6:ba:74:88:5b:64:2a:29:1b:
        93:1f:4c:a1:52:7b:0f:27:ae:fd:b3:01:06:c1:33:76:3d:99:
        0e:ae:22:49:ba:76:ab:a1:6b:e6:61:31:ce:f5:ef:60:1e:88:
        66:2c:55:16:d4:c3:5f:c1:d3:af:7f:73:f9:53:eb:00:f3:6d:
        46:d8:e0:b6:02:be:be:48:23:96:cf:67:bf:f5:04:2c:7b:e1:
        de:18:71:13:bd:cc:76:f5:d5:c0:6b:70:b2:81:09:22:6e:b8:
        58:5a:28:c1:ca:65:64:9e:f9:ba:c8:d3:57:25:9f:86:72:30:
        9f:36:e4:b4:ea:b9:ab:a7:d6:3f:66:c1:e9:c5:65:ca:1c:23:
        a3:de:bc:e3:c5:5d:ad:24:d0:a7:fc:83:28:4e:f4:1a:3d:7d:
        49:e9:c4:20:e0:11:ac:14:0d:3c:92:86:fd:8b:c0:c0:ee:ec:
        ae:83:ba:9a:28:95:86:81:b6:df:4d:c9:11:ec:98:d4:d6:a2:
        70:93:70:c9:f4:60:f0:93:ac:77:7c:ba:74:8b:22:30:a8:e5:
        54:7b:69:36:ab:6e:9c:83:f2:ce:f6:8e:04:0a:29:90:9e:3f:
        e0:fe:0b:69:3a:45:08:5f:2c:ea:b1:f0:f0:73:21:ea:08:db:
        2e:45:75:55:3a:69:8a:7e:1b:0d:2f:b4:da:58:11:de:54:c3:
        f9:8e:05:a9:9f:59:58:5d:76:36:3f:7b:72:07:d2:fb:eb:f5:
        74:10:79:a6:69:87:78:9b:69:6c:1d:44:f6:41:fb:67:4d:b4:
        13:08:ac:b9:73:9b:6a:59:da:d9:eb:03:82:75:7d:95:3c:43:
        fd:43:a7:16:16:a9:3a:c6:5e:b3:40:80:43:ec:22:d5:15:0b:
        49:bd:cd:89:1d:b9:33:45:b8:bb:0e:46:7f:6a:2c:03:72:9f:
        ce:d2:a7:ad:a0:ad:d4:18:5b:c7:11:77:ab:b3:cc:5c:aa:f1:
        8e:8f:f0:8b:b0:fc:04:3d:2e:f8:5b:44:90:8f:ab:e6:e1:44:
        9d:5c:a8:2e:a6:a6:31:34:f1:ed:59:7d:cf:a3:02:fb:b9:38:
        20:39:6a:7a:1a:9c:37:02:0e:b3:d0:dd:0d:80:eb:13:8b:c2:
        3d:0c:19:05:7b:7e:57:9b
-----BEGIN CERTIFICATE-----
MIIFZDCCA0ygAwIBAgIUJJ5MM873G9Xeljps6FEuSdxcckEwDQYJKoZIhvcNAQEL
BQAwRzELMAkGA1UEBhMCUEwxEjAQBgNVBAoMCVVuaXR5LUlkTTEkMCIGA1UEAwwb
VW5pdHkgTG93IFRydXN0IEludGVybmFsIENBMB4XDTI0MDcxNzIwMDUyMVoXDTM0
MDcxNTIwMDUyMVowNTELMAkGA1UEBhMCUEwxEjAQBgNVBAoMCVVuaXR5LUlkTTES
MBAGA1UEAwwJbG9jYWxob3N0MIICIjANBgkqhkiG9w0BAQEFAAOCAg8AMIICCgKC
AgEAr14wdIhywYnL7mq9t2/m1wCW5wZUvmLw3DqrZKOnXqx9epGVYLINFH9YBYJ6
emJL6kech6MgCz0gJ490d68bpy8jhrFTYfbFBX9eNHEEfZyBwOLLfJf6DsmLa6Gt
udrcMsBfuasR2SMl0ElxSMwWPl1jWS/daWyJzL81tBDj/A5kquJrxNdbUoSx+gfC
qwhTSEPDwhLpU7Xpr0CP8nl7Wa2hrxBcAbOp0t+xtrOIxfmRBII6jUoMuhhR6UXP
qbLBD8dQvFlkvf3N0zfS2gf+IzFR06/Axsxi1NHnv+p8KjaRUcxUA27h9QrgbNbE
j6fk3gwQBKbQl2Gnav4YU/OJFAB/z0AWIAUkuFXmPDRburc67IKw2SZy/UyQiHS/
+kDav+9sZZFM19pnzy2r85dTz9+eZkgtzzZqzGBGFi3GhBZSyK5FHsfUYPKRE2Sx
7owdgtqw6Sp+3o5FcktFTD3Mt+/hUBXKESLdYcyHyrUccn8bolkkl2BSnxjGkiGD
VYG6yKxs3X65mZaS1IhNZ5mGZMHkqRHsVpF6UKKfUnIv/AuZ+B1SzZLWHQoaqwne
mSOeR5BdRdtlBDQ6mhbkIeVPPYuIwcVSGYVzjZ6SSSy4YR/DoI68aBlFoXp2ney9
4XXNLWH7GZikjcHPvRBPLaa9GaPHbB79peNeFV1Cij80uRkCAwEAAaNaMFgwCQYD
VR0TBAIwADALBgNVHQ8EBAMCBPAwHQYDVR0OBBYEFI/NpIsccXHz9tNQxNzroS4w
kSJSMB8GA1UdIwQYMBaAFEu1uOvKpOZQ6Q7ESC5mXj2duRIHMA0GCSqGSIb3DQEB
CwUAA4ICAQAihujRW6YcWqJJY2okY+zeMqLrRRemcNVQImirpnU40t27EvpWe4Co
iVAL7Rg0ZCf9T7magzN2o5tnqnOh416RRVB9BEcSN7gW+4UmAZveJYi2unSIW2Qq
KRuTH0yhUnsPJ679swEGwTN2PZkOriJJunaroWvmYTHO9e9gHohmLFUW1MNfwdOv
f3P5U+sA821G2OC2Ar6+SCOWz2e/9QQse+HeGHETvcx29dXAa3CygQkibrhYWijB
ymVknvm6yNNXJZ+GcjCfNuS06rmrp9Y/ZsHpxWXKHCOj3rzjxV2tJNCn/IMoTvQa
PX1J6cQg4BGsFA08kob9i8DA7uyug7qaKJWGgbbfTckR7JjU1qJwk3DJ9GDwk6x3
fLp0iyIwqOVUe2k2q26cg/LO9o4ECimQnj/g/gtpOkUIXyzqsfDwcyHqCNsuRXVV
OmmKfhsNL7TaWBHeVMP5jgWpn1lYXXY2P3tyB9L76/V0EHmmaYd4m2lsHUT2Qftn
TbQTCKy5c5tqWdrZ6wOCdX2VPEP9Q6cWFqk6xl6zQIBD7CLVFQtJvc2JHbkzRbi7
DkZ/aiwDcp/O0qetoK3UGFvHEXers8xcqvGOj/CLsPwEPS74W0SQj6vm4USdXKgu
pqYxNPHtWX3PowL7uTggOWp6Gpw3Ag6z0N0NgOsTi8I9DBkFe35Xmw==
-----END CERTIFICATE-----
